target datalayout = "e-m:e-p270:32:32-p271:32:32-p272:64:64-i64:64-i128:128-f80:128-n8:16:32:64-S128"
target triple = "x86_64-pc-linux-gnu"

; Function Attrs: nounwind uwtable
define internal void @aesni_setkey_enc_256(ptr noundef %0, ptr noundef %1) #0 {
  %3 = alloca ptr, align 8
  %4 = alloca ptr, align 8
  store ptr %0, ptr %3, align 8, !tbaa !11
  store ptr %1, ptr %4, align 8, !tbaa !11
  %5 = load ptr, ptr %3, align 8, !tbaa !11
  %6 = load ptr, ptr %4, align 8, !tbaa !11
  call void asm sideeffect "movdqu ($1), %xmm0           \0A\09movdqu %xmm0, ($0)           \0A\09add $$16, $0                   \0A\09movdqu 16($1), %xmm1         \0A\09movdqu %xmm1, ($0)           \0A\09jmp 2f                        \0A\091:                                \0A\09pshufd $$0xff, %xmm2, %xmm2      \0A\09pxor %xmm0, %xmm2               \0A\09pslldq $$4, %xmm0                 \0A\09pxor %xmm0, %xmm2               \0A\09pslldq $$4, %xmm0                 \0A\09pxor %xmm0, %xmm2               \0A\09pslldq $$4, %xmm0                 \0A\09pxor %xmm2, %xmm0               \0A\09add $$16, $0                       \0A\09movdqu %xmm0, ($0)               \0A\09.byte 0x66,0x0F,0x3A,0xDF,0xD0,0x00\0A\09pshufd $$0xaa, %xmm2, %xmm2      \0A\09pxor %xmm1, %xmm2               \0A\09pslldq $$4, %xmm1                 \0A\09pxor %xmm1, %xmm2               \0A\09pslldq $$4, %xmm1                 \0A\09pxor %xmm1, %xmm2               \0A\09pslldq $$4, %xmm1                 \0A\09pxor %xmm2, %xmm1               \0A\09add $$16, $0                       \0A\09movdqu %xmm1, ($0)               \0A\09ret                               \0A\092:                                \0A\09.byte 0x66,0x0F,0x3A,0xDF,0xD1,0x01\0A\09call 1b \0A\09.byte 0x66,0x0F,0x3A,0xDF,0xD1,0x02\0A\09call 1b \0A\09.byte 0x66,0x0F,0x3A,0xDF,0xD1,0x04\0A\09call 1b \0A\09.byte 0x66,0x0F,0x3A,0xDF,0xD1,0x08\0A\09call 1b \0A\09.byte 0x66,0x0F,0x3A,0xDF,0xD1,0x10\0A\09call 1b \0A\09.byte 0x66,0x0F,0x3A,0xDF,0xD1,0x20\0A\09call 1b \0A\09.byte 0x66,0x0F,0x3A,0xDF,0xD1,0x40\0A\09call 1b \0A\09", "r,r,~{memory},~{cc},~{ax},~{dirflag},~{fpsr},~{flags}"(ptr %5, ptr %6) #4, !srcloc !28
  ret void
}

; Function Attrs: nounwind uwtable
define internal void @aesni_setkey_enc_192(ptr noundef %0, ptr noundef %1) #0 {
  %3 = alloca ptr, align 8
  %4 = alloca ptr, align 8
  store ptr %0, ptr %3, align 8, !tbaa !11
  store ptr %1, ptr %4, align 8, !tbaa !11
  %5 = load ptr, ptr %3, align 8, !tbaa !11
  %6 = load ptr, ptr %4, align 8, !tbaa !11
  call void asm sideeffect "movdqu ($1), %xmm0   \0A\09movdqu %xmm0, ($0)   \0A\09add $$16, $0           \0A\09movq 16($1), %xmm1   \0A\09movq %xmm1, ($0)     \0A\09add $$8, $0            \0A\09jmp 2f                \0A\091:                            \0A\09pshufd $$0x55, %xmm2, %xmm2  \0A\09pxor %xmm0, %xmm2           \0A\09pslldq $$4, %xmm0             \0A\09pxor %xmm0, %xmm2           \0A\09pslldq $$4, %xmm0             \0A\09pxor %xmm0, %xmm2           \0A\09pslldq $$4, %xmm0             \0A\09pxor %xmm2, %xmm0           \0A\09movdqu %xmm0, ($0)           \0A\09add $$16, $0                   \0A\09pshufd $$0xff, %xmm0, %xmm2  \0A\09pxor %xmm1, %xmm2           \0A\09pslldq $$4, %xmm1             \0A\09pxor %xmm2, %xmm1           \0A\09movq %xmm1, ($0)             \0A\09add $$8, $0                    \0A\09ret                           \0A\092:                            \0A\09.byte 0x66,0x0F,0x3A,0xDF,0xD1,0x01\0A\09call 1b \0A\09.byte 0x66,0x0F,0x3A,0xDF,0xD1,0x02\0A\09call 1b \0A\09.byte 0x66,0x0F,0x3A,0xDF,0xD1,0x04\0A\09call 1b \0A\09.byte 0x66,0x0F,0x3A,0xDF,0xD1,0x08\0A\09call 1b \0A\09.byte 0x66,0x0F,0x3A,0xDF,0xD1,0x10\0A\09call 1b \0A\09.byte 0x66,0x0F,0x3A,0xDF,0xD1,0x20\0A\09call 1b \0A\09.byte 0x66,0x0F,0x3A,0xDF,0xD1,0x40\0A\09call 1b \0A\09.byte 0x66,0x0F,0x3A,0xDF,0xD1,0x80\0A\09call 1b \0A\09", "r,r,~{memory},~{cc},~{ax},~{dirflag},~{fpsr},~{flags}"(ptr %5, ptr %6) #4, !srcloc !27
  ret void
}

; Function Attrs: nounwind uwtable
define internal void @aesni_setkey_enc_128(ptr noundef %0, ptr noundef %1) #0 {
  %3 = alloca ptr, align 8
  %4 = alloca ptr, align 8
  store ptr %0, ptr %3, align 8, !tbaa !11
  store ptr %1, ptr %4, align 8, !tbaa !11
  %5 = load ptr, ptr %3, align 8, !tbaa !11
  %6 = load ptr, ptr %4, align 8, !tbaa !11
  call void asm sideeffect "movdqu ($1), %xmm0               \0A\09movdqu %xmm0, ($0)               \0A\09jmp 2f                            \0A\091:                                \0A\09pshufd $$0xff, %xmm1, %xmm1      \0A\09pxor %xmm0, %xmm1               \0A\09pslldq $$4, %xmm0                 \0A\09pxor %xmm0, %xmm1               \0A\09pslldq $$4, %xmm0                 \0A\09pxor %xmm0, %xmm1               \0A\09pslldq $$4, %xmm0                 \0A\09pxor %xmm1, %xmm0               \0A\09add $$16, $0                       \0A\09movdqu %xmm0, ($0)               \0A\09ret                               \0A\092:                                \0A\09.byte 0x66,0x0F,0x3A,0xDF,0xC8,0x01\0A\09call 1b \0A\09.byte 0x66,0x0F,0x3A,0xDF,0xC8,0x02\0A\09call 1b \0A\09.byte 0x66,0x0F,0x3A,0xDF,0xC8,0x04\0A\09call 1b \0A\09.byte 0x66,0x0F,0x3A,0xDF,0xC8,0x08\0A\09call 1b \0A\09.byte 0x66,0x0F,0x3A,0xDF,0xC8,0x10\0A\09call 1b \0A\09.byte 0x66,0x0F,0x3A,0xDF,0xC8,0x20\0A\09call 1b \0A\09.byte 0x66,0x0F,0x3A,0xDF,0xC8,0x40\0A\09call 1b \0A\09.byte 0x66,0x0F,0x3A,0xDF,0xC8,0x80\0A\09call 1b \0A\09.byte 0x66,0x0F,0x3A,0xDF,0xC8,0x1B\0A\09call 1b \0A\09.byte 0x66,0x0F,0x3A,0xDF,0xC8,0x36\0A\09call 1b \0A\09", "r,r,~{memory},~{cc},~{ax},~{dirflag},~{fpsr},~{flags}"(ptr %5, ptr %6) #4, !srcloc !26
  ret void
}

; Function Attrs: nounwind uwtable
define hidden i32 @mbedtls_aesni_setkey_enc(ptr noundef %0, ptr noundef %1, i64 noundef %2) #0 {
  %4 = alloca i32, align 4
  %5 = alloca ptr, align 8
  %6 = alloca ptr, align 8
  %7 = alloca i64, align 8
  store ptr %0, ptr %5, align 8, !tbaa !11
  store ptr %1, ptr %6, align 8, !tbaa !11
  store i64 %2, ptr %7, align 8, !tbaa !18
  %8 = load i64, ptr %7, align 8, !tbaa !18
  switch i64 %8, label %18 [
    i64 128, label %9
    i64 192, label %12
    i64 256, label %15
  ]

9:                                                ; preds = %3
  %10 = load ptr, ptr %5, align 8, !tbaa !11
  %11 = load ptr, ptr %6, align 8, !tbaa !11
  call void @aesni_setkey_enc_128(ptr noundef %10, ptr noundef %11)
  br label %19

12:                                               ; preds = %3
  %13 = load ptr, ptr %5, align 8, !tbaa !11
  %14 = load ptr, ptr %6, align 8, !tbaa !11
  call void @aesni_setkey_enc_192(ptr noundef %13, ptr noundef %14)
  br label %19

15:                                               ; preds = %3
  %16 = load ptr, ptr %5, align 8, !tbaa !11
  %17 = load ptr, ptr %6, align 8, !tbaa !11
  call void @aesni_setkey_enc_256(ptr noundef %16, ptr noundef %17)
  br label %19

18:                                               ; preds = %3
  store i32 -32, ptr %4, align 4
  br label %20

19:                                               ; preds = %15, %12, %9
  store i32 0, ptr %4, align 4
  br label %20

20:                                               ; preds = %19, %18
  %21 = load i32, ptr %4, align 4
  ret i32 %21
}